; Function Attrs: uwtable
define void @_ZN7rocksdb6DBImpl16BGWorkCompactionEPv(ptr noundef %0) #15 align 2 {
  %.sroa.0.0.copyload = load ptr, ptr %0, align 8, !tbaa !1761
  %.sroa.4.0..sroa_idx = getelementptr inbounds nuw i8, ptr %0, i64 8
  %.sroa.4.0.copyload = load ptr, ptr %.sroa.4.0..sroa_idx, align 8, !tbaa !1762
  tail call void @_ZdlPvm(ptr noundef %0, i64 noundef 24) #30
  %.not.i = icmp eq ptr @_ZTHN7rocksdb15iostats_contextE, null
  br i1 %.not.i, label %_ZTWN7rocksdb15iostats_contextE.exit, label %2

2:                                                ; preds = %1
  tail call void @_ZTHN7rocksdb15iostats_contextE()
  br label %_ZTWN7rocksdb15iostats_contextE.exit

_ZTWN7rocksdb15iostats_contextE.exit:             ; preds = %1, %2
  %3 = tail call noundef align 8 ptr @llvm.threadlocal.address.p0(ptr align 8 @_ZN7rocksdb15iostats_contextE)
  store i64 1, ptr %3, align 8, !tbaa !1763
  tail call void @_ZN7rocksdb6DBImpl24BackgroundCallCompactionEPNS0_19PrepickedCompactionENS_3Env8PriorityE(ptr noundef nonnull align 64 dereferenceable(6868) %.sroa.0.0.copyload, ptr noundef %.sroa.4.0.copyload, i32 noundef 1)
  %4 = icmp eq ptr %.sroa.4.0.copyload, null
  br i1 %4, label %8, label %5

5:                                                ; preds = %_ZTWN7rocksdb15iostats_contextE.exit
  %6 = getelementptr inbounds nuw i8, ptr %.sroa.4.0.copyload, i64 16
  %7 = load ptr, ptr %6, align 8, !tbaa !414
  %.not.i.i = icmp eq ptr %7, null
  br i1 %.not.i.i, label %_ZN7rocksdb6DBImpl19PrepickedCompactionD2Ev.exit, label %_ZNKSt14default_deleteIN7rocksdb16TaskLimiterTokenEEclEPS1_.exit.i.i

_ZNKSt14default_deleteIN7rocksdb16TaskLimiterTokenEEclEPS1_.exit.i.i: ; preds = %5
  tail call void @_ZN7rocksdb16TaskLimiterTokenD1Ev(ptr noundef nonnull align 8 dereferenceable(8) %7) #31
  tail call void @_ZdlPvm(ptr noundef nonnull %7, i64 noundef 8) #30
  br label %_ZN7rocksdb6DBImpl19PrepickedCompactionD2Ev.exit

_ZN7rocksdb6DBImpl19PrepickedCompactionD2Ev.exit: ; preds = %5, %_ZNKSt14default_deleteIN7rocksdb16TaskLimiterTokenEEclEPS1_.exit.i.i
  tail call void @_ZdlPvm(ptr noundef nonnull %.sroa.4.0.copyload, i64 noundef 24) #30
  br label %8

8:                                                ; preds = %_ZN7rocksdb6DBImpl19PrepickedCompactionD2Ev.exit, %_ZTWN7rocksdb15iostats_contextE.exit
  ret void
}